target datalayout = "e-m:e-p270:32:32-p271:32:32-p272:64:64-i64:64-i128:128-f80:128-n8:16:32:64-S128"
target triple = "x86_64-pc-linux-gnu"

%struct.DdManager = type { %struct.DdNode, ptr, ptr, ptr, ptr, ptr, ptr, ptr, i32, i32, double, double, double, i32, i32, i32, i32, i32, i32, ptr, ptr, %struct.DdSubtable, i32, i32, i32, i32, i32, i32, i32, double, i32, i32, i32, ptr, i64, double, i32, ptr, ptr, ptr, ptr, ptr, ptr, ptr, i32, ptr, ptr, ptr, ptr, ptr, ptr, i32, i32, i32, double, i32, i32, i32, i32, double, double, i32, i32, i32, i32, i32, i32, i32, i32, i32, ptr, ptr, i32, i32, i32, i32, i32, i32, ptr, ptr, ptr, ptr, ptr, ptr, ptr, ptr, i32, i64, i64, i64, i32, i64, i64, double, double, double, double, double, double, i32, ptr, ptr, i64 }
%struct.DdNode = type { i32, i32, ptr, %union.anon, i64 }
%union.anon = type { %struct.DdChildren }
%struct.DdChildren = type { ptr, ptr }
%struct.DdSubtable = type { ptr, i32, i32, i32, i32, i32, i32, i32, i32, i32, i32, i32 }
%struct.Move = type { i32, i32, i32, i32, ptr }

; Function Attrs: nounwind uwtable
define internal i32 @zddGroupSiftingUp(ptr noundef %0, i32 noundef %1, i32 noundef %2, ptr noundef %3) #0 {
  %5 = alloca i32, align 4
  %6 = alloca ptr, align 8
  %7 = alloca i32, align 4
  %8 = alloca i32, align 4
  %9 = alloca ptr, align 8
  %10 = alloca ptr, align 8
  %11 = alloca i32, align 4
  %12 = alloca i32, align 4
  %13 = alloca i32, align 4
  %14 = alloca i32, align 4
  %15 = alloca i32, align 4
  store ptr %0, ptr %6, align 8, !tbaa !3
  store i32 %1, ptr %7, align 4, !tbaa !8
  store i32 %2, ptr %8, align 4, !tbaa !8
  store ptr %3, ptr %9, align 8, !tbaa !70
  call void @llvm.lifetime.start.p0(i64 8, ptr %10) #5
  call void @llvm.lifetime.start.p0(i64 4, ptr %11) #5
  call void @llvm.lifetime.start.p0(i64 4, ptr %12) #5
  call void @llvm.lifetime.start.p0(i64 4, ptr %13) #5
  call void @llvm.lifetime.start.p0(i64 4, ptr %14) #5
  %16 = load ptr, ptr %6, align 8, !tbaa !3
  %17 = getelementptr inbounds nuw %struct.DdManager, ptr %16, i32 0, i32 24
  %18 = load i32, ptr %17, align 8, !tbaa !42
  store i32 %18, ptr %14, align 4, !tbaa !8
  %19 = load ptr, ptr %6, align 8, !tbaa !3
  %20 = load i32, ptr %7, align 4, !tbaa !8
  %21 = call i32 @cuddZddNextLow(ptr noundef %19, i32 noundef %20)
  store i32 %21, ptr %11, align 4, !tbaa !8
  br label %22

22:                                               ; preds = %132, %4
  %23 = load i32, ptr %11, align 4, !tbaa !8
  %24 = load i32, ptr %8, align 4, !tbaa !8
  %25 = icmp sge i32 %23, %24
  br i1 %25, label %26, label %137

26:                                               ; preds = %22
  %27 = load ptr, ptr %6, align 8, !tbaa !3
  %28 = getelementptr inbounds nuw %struct.DdManager, ptr %27, i32 0, i32 20
  %29 = load ptr, ptr %28, align 8, !tbaa !34
  %30 = load i32, ptr %11, align 4, !tbaa !8
  %31 = sext i32 %30 to i64
  %32 = getelementptr inbounds %struct.DdSubtable, ptr %29, i64 %31
  %33 = getelementptr inbounds nuw %struct.DdSubtable, ptr %32, i32 0, i32 6
  %34 = load i32, ptr %33, align 4, !tbaa !35
  store i32 %34, ptr %13, align 4, !tbaa !8
  %35 = load ptr, ptr %6, align 8, !tbaa !3
  %36 = getelementptr inbounds nuw %struct.DdManager, ptr %35, i32 0, i32 20
  %37 = load ptr, ptr %36, align 8, !tbaa !34
  %38 = load i32, ptr %11, align 4, !tbaa !8
  %39 = sext i32 %38 to i64
  %40 = getelementptr inbounds %struct.DdSubtable, ptr %37, i64 %39
  %41 = getelementptr inbounds nuw %struct.DdSubtable, ptr %40, i32 0, i32 6
  %42 = load i32, ptr %41, align 4, !tbaa !35
  %43 = load i32, ptr %11, align 4, !tbaa !8
  %44 = icmp eq i32 %42, %43
  br i1 %44, label %45, label %105

45:                                               ; preds = %26
  %46 = load ptr, ptr %6, align 8, !tbaa !3
  %47 = getelementptr inbounds nuw %struct.DdManager, ptr %46, i32 0, i32 20
  %48 = load ptr, ptr %47, align 8, !tbaa !34
  %49 = load i32, ptr %7, align 4, !tbaa !8
  %50 = sext i32 %49 to i64
  %51 = getelementptr inbounds %struct.DdSubtable, ptr %48, i64 %50
  %52 = getelementptr inbounds nuw %struct.DdSubtable, ptr %51, i32 0, i32 6
  %53 = load i32, ptr %52, align 4, !tbaa !35
  %54 = load i32, ptr %7, align 4, !tbaa !8
  %55 = icmp eq i32 %53, %54
  br i1 %55, label %56, label %105

56:                                               ; preds = %45
  %57 = load ptr, ptr %6, align 8, !tbaa !3
  %58 = load i32, ptr %11, align 4, !tbaa !8
  %59 = load i32, ptr %7, align 4, !tbaa !8
  %60 = call i32 @cuddZddSwapInPlace(ptr noundef %57, i32 noundef %58, i32 noundef %59)
  store i32 %60, ptr %12, align 4, !tbaa !8
  %61 = load i32, ptr %12, align 4, !tbaa !8
  %62 = icmp eq i32 %61, 0
  br i1 %62, label %63, label %64

63:                                               ; preds = %56
  br label %138

64:                                               ; preds = %56
  %65 = load ptr, ptr %6, align 8, !tbaa !3
  %66 = call ptr @cuddDynamicAllocNode(ptr noundef %65)
  store ptr %66, ptr %10, align 8, !tbaa !57
  %67 = load ptr, ptr %10, align 8, !tbaa !57
  %68 = icmp eq ptr %67, null
  br i1 %68, label %69, label %70

69:                                               ; preds = %64
  br label %138

70:                                               ; preds = %64
  %71 = load i32, ptr %11, align 4, !tbaa !8
  %72 = load ptr, ptr %10, align 8, !tbaa !57
  %73 = getelementptr inbounds nuw %struct.Move, ptr %72, i32 0, i32 0
  store i32 %71, ptr %73, align 8, !tbaa !62
  %74 = load i32, ptr %7, align 4, !tbaa !8
  %75 = load ptr, ptr %10, align 8, !tbaa !57
  %76 = getelementptr inbounds nuw %struct.Move, ptr %75, i32 0, i32 1
  store i32 %74, ptr %76, align 4, !tbaa !59
  %77 = load ptr, ptr %10, align 8, !tbaa !57
  %78 = getelementptr inbounds nuw %struct.Move, ptr %77, i32 0, i32 2
  store i32 0, ptr %78, align 8, !tbaa !73
  %79 = load i32, ptr %12, align 4, !tbaa !8
  %80 = load ptr, ptr %10, align 8, !tbaa !57
  %81 = getelementptr inbounds nuw %struct.Move, ptr %80, i32 0, i32 3
  store i32 %79, ptr %81, align 4, !tbaa !74
  %82 = load ptr, ptr %9, align 8, !tbaa !70
  %83 = load ptr, ptr %82, align 8, !tbaa !57
  %84 = load ptr, ptr %10, align 8, !tbaa !57
  %85 = getelementptr inbounds nuw %struct.Move, ptr %84, i32 0, i32 4
  store ptr %83, ptr %85, align 8, !tbaa !64
  %86 = load ptr, ptr %10, align 8, !tbaa !57
  %87 = load ptr, ptr %9, align 8, !tbaa !70
  store ptr %86, ptr %87, align 8, !tbaa !57
  %88 = load i32, ptr %12, align 4, !tbaa !8
  %89 = sitofp i32 %88 to double
  %90 = load i32, ptr %14, align 4, !tbaa !8
  %91 = sitofp i32 %90 to double
  %92 = load ptr, ptr %6, align 8, !tbaa !3
  %93 = getelementptr inbounds nuw %struct.DdManager, ptr %92, i32 0, i32 59
  %94 = load double, ptr %93, align 8, !tbaa !75
  %95 = fmul double %91, %94
  %96 = fcmp ogt double %89, %95
  br i1 %96, label %97, label %98

97:                                               ; preds = %70
  store i32 1, ptr %5, align 4
  store i32 1, ptr %15, align 4
  br label %164

98:                                               ; preds = %70
  %99 = load i32, ptr %12, align 4, !tbaa !8
  %100 = load i32, ptr %14, align 4, !tbaa !8
  %101 = icmp slt i32 %99, %100
  br i1 %101, label %102, label %104

102:                                              ; preds = %98
  %103 = load i32, ptr %12, align 4, !tbaa !8
  store i32 %103, ptr %14, align 4, !tbaa !8
  br label %104

104:                                              ; preds = %102, %98
  br label %132

105:                                              ; preds = %45, %26
  %106 = load ptr, ptr %6, align 8, !tbaa !3
  %107 = load i32, ptr %11, align 4, !tbaa !8
  %108 = load i32, ptr %7, align 4, !tbaa !8
  %109 = load ptr, ptr %9, align 8, !tbaa !70
  %110 = call i32 @zddGroupMove(ptr noundef %106, i32 noundef %107, i32 noundef %108, ptr noundef %109)
  store i32 %110, ptr %12, align 4, !tbaa !8
  %111 = load i32, ptr %12, align 4, !tbaa !8
  %112 = icmp eq i32 %111, 0
  br i1 %112, label %113, label %114

113:                                              ; preds = %105
  br label %138

114:                                              ; preds = %105
  %115 = load i32, ptr %12, align 4, !tbaa !8
  %116 = sitofp i32 %115 to double
  %117 = load i32, ptr %14, align 4, !tbaa !8
  %118 = sitofp i32 %117 to double
  %119 = load ptr, ptr %6, align 8, !tbaa !3
  %120 = getelementptr inbounds nuw %struct.DdManager, ptr %119, i32 0, i32 59
  %121 = load double, ptr %120, align 8, !tbaa !75
  %122 = fmul double %118, %121
  %123 = fcmp ogt double %116, %122
  br i1 %123, label %124, label %125

124:                                              ; preds = %114
  store i32 1, ptr %5, align 4
  store i32 1, ptr %15, align 4
  br label %164

125:                                              ; preds = %114
  %126 = load i32, ptr %12, align 4, !tbaa !8
  %127 = load i32, ptr %14, align 4, !tbaa !8
  %128 = icmp slt i32 %126, %127
  br i1 %128, label %129, label %131

129:                                              ; preds = %125
  %130 = load i32, ptr %12, align 4, !tbaa !8
  store i32 %130, ptr %14, align 4, !tbaa !8
  br label %131

131:                                              ; preds = %129, %125
  br label %132

132:                                              ; preds = %131, %104
  %133 = load i32, ptr %13, align 4, !tbaa !8
  store i32 %133, ptr %7, align 4, !tbaa !8
  %134 = load ptr, ptr %6, align 8, !tbaa !3
  %135 = load i32, ptr %7, align 4, !tbaa !8
  %136 = call i32 @cuddZddNextLow(ptr noundef %134, i32 noundef %135)
  store i32 %136, ptr %11, align 4, !tbaa !8
  br label %22, !llvm.loop !80

137:                                              ; preds = %22
  store i32 1, ptr %5, align 4
  store i32 1, ptr %15, align 4
  br label %164

138:                                              ; preds = %113, %69, %63
  br label %139

139:                                              ; preds = %143, %138
  %140 = load ptr, ptr %9, align 8, !tbaa !70
  %141 = load ptr, ptr %140, align 8, !tbaa !57
  %142 = icmp ne ptr %141, null
  br i1 %142, label %143, label %163

143:                                              ; preds = %139
  %144 = load ptr, ptr %9, align 8, !tbaa !70
  %145 = load ptr, ptr %144, align 8, !tbaa !57
  %146 = getelementptr inbounds nuw %struct.Move, ptr %145, i32 0, i32 4
  %147 = load ptr, ptr %146, align 8, !tbaa !64
  store ptr %147, ptr %10, align 8, !tbaa !57
  %148 = load ptr, ptr %9, align 8, !tbaa !70
  %149 = load ptr, ptr %148, align 8, !tbaa !57
  %150 = getelementptr inbounds nuw %struct.DdNode, ptr %149, i32 0, i32 1
  store i32 0, ptr %150, align 4, !tbaa !65
  %151 = load ptr, ptr %6, align 8, !tbaa !3
  %152 = getelementptr inbounds nuw %struct.DdManager, ptr %151, i32 0, i32 48
  %153 = load ptr, ptr %152, align 8, !tbaa !66
  %154 = load ptr, ptr %9, align 8, !tbaa !70
  %155 = load ptr, ptr %154, align 8, !tbaa !57
  %156 = getelementptr inbounds nuw %struct.DdNode, ptr %155, i32 0, i32 2
  store ptr %153, ptr %156, align 8, !tbaa !67
  %157 = load ptr, ptr %9, align 8, !tbaa !70
  %158 = load ptr, ptr %157, align 8, !tbaa !57
  %159 = load ptr, ptr %6, align 8, !tbaa !3
  %160 = getelementptr inbounds nuw %struct.DdManager, ptr %159, i32 0, i32 48
  store ptr %158, ptr %160, align 8, !tbaa !66
  %161 = load ptr, ptr %10, align 8, !tbaa !57
  %162 = load ptr, ptr %9, align 8, !tbaa !70
  store ptr %161, ptr %162, align 8, !tbaa !57
  br label %139, !llvm.loop !81

163:                                              ; preds = %139
  store i32 0, ptr %5, align 4
  store i32 1, ptr %15, align 4
  br label %164

164:                                              ; preds = %163, %137, %124, %97
  call void @llvm.lifetime.end.p0(i64 4, ptr %14) #5
  call void @llvm.lifetime.end.p0(i64 4, ptr %13) #5
  call void @llvm.lifetime.end.p0(i64 4, ptr %12) #5
  call void @llvm.lifetime.end.p0(i64 4, ptr %11) #5
  call void @llvm.lifetime.end.p0(i64 8, ptr %10) #5
  %165 = load i32, ptr %5, align 4
  ret i32 %165
}