; Function Attrs: nounwind uwtable
define internal fastcc range(i32 0, 2) i32 @zddGroupSiftingUp(ptr noundef %0, i32 noundef %1, i32 noundef %2, ptr noundef nonnull captures(none) %3) unnamed_addr #0 {
  %5 = getelementptr inbounds nuw i8, ptr %0, i64 232
  %6 = load i32, ptr %5, align 8, !tbaa !41
  %7 = tail call i32 @cuddZddNextLow(ptr noundef %0, i32 noundef %1) #9
  %.not69 = icmp slt i32 %7, %2
  br i1 %.not69, label %.loopexit, label %.lr.ph

.lr.ph:                                           ; preds = %4
  %8 = getelementptr inbounds nuw i8, ptr %0, i64 160
  %9 = getelementptr inbounds nuw i8, ptr %0, i64 464
  br label %10

10:                                               ; preds = %.lr.ph, %47
  %.072 = phi i32 [ %6, %.lr.ph ], [ %spec.select67, %47 ]
  %.06071 = phi i32 [ %7, %.lr.ph ], [ %48, %47 ]
  %.06170 = phi i32 [ %1, %.lr.ph ], [ %14, %47 ]
  %11 = load ptr, ptr %8, align 8, !tbaa !31
  %12 = sext i32 %.06071 to i64
  %13 = getelementptr inbounds %struct.DdSubtable, ptr %11, i64 %12, i32 6
  %14 = load i32, ptr %13, align 4, !tbaa !32
  %15 = icmp eq i32 %14, %.06071
  br i1 %15, label %16, label %38

16:                                               ; preds = %10
  %17 = sext i32 %.06170 to i64
  %18 = getelementptr inbounds %struct.DdSubtable, ptr %11, i64 %17, i32 6
  %19 = load i32, ptr %18, align 4, !tbaa !32
  %20 = icmp eq i32 %19, %.06170
  br i1 %20, label %21, label %38

21:                                               ; preds = %16
  %22 = tail call i32 @cuddZddSwapInPlace(ptr noundef nonnull %0, i32 noundef %.06071, i32 noundef %.06170) #9
  %23 = icmp eq i32 %22, 0
  br i1 %23, label %49, label %24

24:                                               ; preds = %21
  %25 = tail call ptr @cuddDynamicAllocNode(ptr noundef nonnull %0) #9
  %26 = icmp eq ptr %25, null
  br i1 %26, label %49, label %27

27:                                               ; preds = %24
  store i32 %.06071, ptr %25, align 8, !tbaa !54
  %28 = getelementptr inbounds nuw i8, ptr %25, i64 4
  store i32 %.06170, ptr %28, align 4, !tbaa !51
  %29 = getelementptr inbounds nuw i8, ptr %25, i64 8
  store i32 0, ptr %29, align 8, !tbaa !68
  %30 = getelementptr inbounds nuw i8, ptr %25, i64 12
  store i32 %22, ptr %30, align 4, !tbaa !69
  %31 = load ptr, ptr %3, align 8, !tbaa !49
  %32 = getelementptr inbounds nuw i8, ptr %25, i64 16
  store ptr %31, ptr %32, align 8, !tbaa !57
  store ptr %25, ptr %3, align 8, !tbaa !49
  %33 = sitofp i32 %22 to double
  %34 = sitofp i32 %.072 to double
  %35 = load double, ptr %9, align 8, !tbaa !70
  %36 = fmul double %35, %34
  %37 = fcmp olt double %36, %33
  br i1 %37, label %.loopexit, label %47

38:                                               ; preds = %16, %10
  %39 = tail call fastcc i32 @zddGroupMove(ptr noundef nonnull %0, i32 noundef %.06071, i32 noundef %.06170, ptr noundef %3)
  %40 = icmp eq i32 %39, 0
  br i1 %40, label %49, label %41

41:                                               ; preds = %38
  %42 = sitofp i32 %39 to double
  %43 = sitofp i32 %.072 to double
  %44 = load double, ptr %9, align 8, !tbaa !70
  %45 = fmul double %44, %43
  %46 = fcmp olt double %45, %42
  br i1 %46, label %.loopexit, label %47

47:                                               ; preds = %41, %27
  %.sink = phi i32 [ %22, %27 ], [ %39, %41 ]
  %spec.select67 = tail call i32 @llvm.smin.i32(i32 %.sink, i32 %.072)
  %48 = tail call i32 @cuddZddNextLow(ptr noundef nonnull %0, i32 noundef %14) #9
  %.not = icmp slt i32 %48, %2
  br i1 %.not, label %.loopexit, label %10, !llvm.loop !80

49:                                               ; preds = %38, %24, %21
  %.pr = load ptr, ptr %3, align 8, !tbaa !49
  %.not6675 = icmp eq ptr %.pr, null
  br i1 %.not6675, label %.loopexit, label %.lr.ph76

.lr.ph76:                                         ; preds = %49
  %50 = getelementptr inbounds nuw i8, ptr %0, i64 400
  %.promoted = load ptr, ptr %50, align 8, !tbaa !56
  br label %51

51:                                               ; preds = %.lr.ph76, %51
  %52 = phi ptr [ %.promoted, %.lr.ph76 ], [ %53, %51 ]
  %53 = phi ptr [ %.pr, %.lr.ph76 ], [ %55, %51 ]
  %54 = getelementptr inbounds nuw i8, ptr %53, i64 16
  %55 = load ptr, ptr %54, align 8, !tbaa !57
  %56 = getelementptr inbounds nuw i8, ptr %53, i64 4
  store i32 0, ptr %56, align 4, !tbaa !58
  %57 = getelementptr inbounds nuw i8, ptr %53, i64 8
  store ptr %52, ptr %57, align 8, !tbaa !59
  store ptr %55, ptr %3, align 8, !tbaa !49
  %.not66 = icmp eq ptr %55, null
  br i1 %.not66, label %..loopexit_crit_edge, label %51, !llvm.loop !81

..loopexit_crit_edge:                             ; preds = %51
  store ptr %53, ptr %50, align 8, !tbaa !56
  br label %.loopexit

.loopexit:                                        ; preds = %27, %41, %47, %4, %49, %..loopexit_crit_edge
  %.059 = phi i32 [ 0, %..loopexit_crit_edge ], [ 0, %49 ], [ 1, %4 ], [ 1, %47 ], [ 1, %41 ], [ 1, %27 ]
  ret i32 %.059
}